; Function Attrs: nounwind uwtable
define dso_local range(i32 -1, 1) i32 @strbuf_readlink(ptr noundef captures(none) %0, ptr noundef readonly captures(none) %1, i64 noundef %2) local_unnamed_addr #3 {
  %4 = load i64, ptr %0, align 8, !tbaa !15
  %5 = icmp ult i64 %2, 8192
  br i1 %5, label %.lr.ph, label %strbuf_setlen.exit.thread24

.lr.ph:                                           ; preds = %3
  %spec.store.select = tail call i64 @llvm.umax.i64(i64 %2, i64 32)
  %6 = getelementptr inbounds nuw i8, ptr %0, i64 8
  %7 = getelementptr inbounds nuw i8, ptr %0, i64 16
  %8 = load i64, ptr %6, align 8, !tbaa !16
  %9 = sub nuw nsw i64 -2, %spec.store.select
  %10 = icmp ult i64 %9, %8
  br i1 %10, label %._crit_edge44, label %.lr.ph43

._crit_edge44:                                    ; preds = %.backedge, %.lr.ph
  tail call void (ptr, ...) @die(ptr noundef nonnull @.str) #24
  unreachable

.lr.ph43:                                         ; preds = %.lr.ph, %.backedge
  %11 = phi i64 [ %41, %.backedge ], [ %8, %.lr.ph ]
  %.0183041 = phi i64 [ %.01830.be, %.backedge ], [ %spec.store.select, %.lr.ph ]
  %12 = phi i64 [ %.pre, %.backedge ], [ %4, %.lr.ph ]
  %.not.i42 = icmp eq i64 %12, 0
  br i1 %.not.i42, label %13, label %._crit_edge

._crit_edge:                                      ; preds = %.lr.ph43
  %.pre35.pre.pre = load ptr, ptr %7, align 8, !tbaa !12
  br label %14

13:                                               ; preds = %.lr.ph43
  store ptr null, ptr %7, align 8, !tbaa !12
  br label %14

14:                                               ; preds = %._crit_edge, %13
  %.pre35.pre = phi ptr [ %.pre35.pre.pre, %._crit_edge ], [ null, %13 ]
  %15 = add nuw nsw i64 %.0183041, 1
  %16 = add i64 %15, %11
  %17 = icmp ugt i64 %16, %12
  br i1 %17, label %st_mult.exit.i, label %22

st_mult.exit.i:                                   ; preds = %14
  %18 = mul i64 %12, 3
  %19 = add i64 %18, 48
  %20 = lshr i64 %19, 1
  %..i = tail call i64 @llvm.umax.i64(i64 %20, i64 %16)
  store i64 %..i, ptr %0, align 8, !tbaa !15
  %21 = tail call ptr @xrealloc(ptr noundef %.pre35.pre, i64 noundef %..i) #25
  store ptr %21, ptr %7, align 8, !tbaa !12
  br label %22

22:                                               ; preds = %st_mult.exit.i, %14
  %.pre35 = phi ptr [ %21, %st_mult.exit.i ], [ %.pre35.pre, %14 ]
  br i1 %.not.i42, label %23, label %strbuf_grow.exit

23:                                               ; preds = %22
  store i8 0, ptr %.pre35, align 1, !tbaa !4
  %.pre34 = load ptr, ptr %7, align 8, !tbaa !12
  br label %strbuf_grow.exit

strbuf_grow.exit:                                 ; preds = %22, %23
  %24 = phi ptr [ %.pre35, %22 ], [ %.pre34, %23 ]
  %25 = tail call i64 @readlink(ptr noundef %1, ptr noundef %24, i64 noundef %.0183041) #25
  %26 = icmp slt i64 %25, 0
  br i1 %26, label %27, label %31

27:                                               ; preds = %strbuf_grow.exit
  %28 = tail call ptr @__errno_location() #27
  %29 = load i32, ptr %28, align 4, !tbaa !33
  %.not = icmp eq i32 %29, 34
  %30 = icmp ult i64 %.0183041, 4096
  %or.cond = and i1 %.not, %30
  br i1 %or.cond, label %.backedge, label %strbuf_setlen.exit.thread24

31:                                               ; preds = %strbuf_grow.exit
  %32 = icmp ult i64 %25, %.0183041
  br i1 %32, label %33, label %strbuf_setlen.exit

33:                                               ; preds = %31
  %34 = load i64, ptr %0, align 8, !tbaa !15
  %spec.select.i = tail call i64 @llvm.usub.sat.i64(i64 %34, i64 1)
  %35 = icmp ugt i64 %25, %spec.select.i
  br i1 %35, label %36, label %37

36:                                               ; preds = %33
  tail call void (ptr, i32, ptr, ...) @BUG_fl(ptr noundef nonnull @.str.28, i32 noundef 167, ptr noundef nonnull @.str.29) #24
  unreachable

37:                                               ; preds = %33
  store i64 %25, ptr %6, align 8, !tbaa !16
  %38 = load ptr, ptr %7, align 8, !tbaa !12
  %.not9.i = icmp eq ptr %38, @strbuf_slopbuf
  br i1 %.not9.i, label %strbuf_release.exit, label %39

39:                                               ; preds = %37
  %40 = getelementptr inbounds nuw i8, ptr %38, i64 %25
  store i8 0, ptr %40, align 1, !tbaa !4
  br label %strbuf_release.exit

strbuf_setlen.exit:                               ; preds = %31
  %.old32 = icmp samesign ult i64 %.0183041, 4096
  br i1 %.old32, label %.backedge, label %strbuf_setlen.exit.thread24

.backedge:                                        ; preds = %strbuf_setlen.exit, %27
  %.01830.be = shl nuw nsw i64 %.0183041, 1
  %.pre = load i64, ptr %0, align 8, !tbaa !15
  %41 = load i64, ptr %6, align 8, !tbaa !16
  %42 = sub nuw nsw i64 -2, %.01830.be
  %43 = icmp ult i64 %42, %41
  br i1 %43, label %._crit_edge44, label %.lr.ph43

strbuf_setlen.exit.thread24:                      ; preds = %strbuf_setlen.exit, %27, %3
  %44 = icmp eq i64 %4, 0
  br i1 %44, label %45, label %strbuf_release.exit

45:                                               ; preds = %strbuf_setlen.exit.thread24
  %46 = load i64, ptr %0, align 8, !tbaa !15
  %.not.i21 = icmp eq i64 %46, 0
  br i1 %.not.i21, label %strbuf_release.exit, label %47

47:                                               ; preds = %45
  %48 = getelementptr inbounds nuw i8, ptr %0, i64 16
  %49 = load ptr, ptr %48, align 8, !tbaa !12
  tail call void @free(ptr noundef %49) #25
  tail call void @llvm.memcpy.p0.p0.i64(ptr noundef nonnull align 8 dereferenceable(24) %0, ptr noundef nonnull align 8 dereferenceable(24) @__const.strbuf_addftime.munged_fmt, i64 24, i1 false)
  br label %strbuf_release.exit

strbuf_release.exit:                              ; preds = %39, %37, %47, %45, %strbuf_setlen.exit.thread24
  %.2 = phi i32 [ -1, %strbuf_setlen.exit.thread24 ], [ -1, %45 ], [ -1, %47 ], [ 0, %37 ], [ 0, %39 ]
  ret i32 %.2
}